target datalayout = "e-m:e-p270:32:32-p271:32:32-p272:64:64-i64:64-i128:128-f80:128-n8:16:32:64-S128"
target triple = "x86_64-pc-linux-gnu"

%"class.gmx::PullElement" = type { %"class.gmx::ISimulatorElement", %"class.gmx::ICheckpointHelperClient", i8, i32, %"class.std::__cxx11::basic_string", i8, ptr, ptr, ptr, ptr }
%"class.gmx::ISimulatorElement" = type { ptr }
%"class.gmx::ICheckpointHelperClient" = type { ptr }
%"class.std::__cxx11::basic_string" = type { %"struct.std::__cxx11::basic_string<char>::_Alloc_hider", i64, %union.anon }
%"struct.std::__cxx11::basic_string<char>::_Alloc_hider" = type { ptr }
%union.anon = type { i64, [8 x i8] }
%"class.std::allocator" = type { i8 }

@.str = private unnamed_addr constant [12 x i8] c"PullElement\00", align 1
@.str.1 = private unnamed_addr constant [50 x i8] c"basic_string: construction from null is not valid\00", align 1

; Function Attrs: mustprogress nounwind uwtable
define linkonce_odr noundef i64 @_ZNSt11char_traitsIcE6lengthEPKc(ptr noundef %0) #1 comdat align 2 {
  %2 = alloca ptr, align 8
  store ptr %0, ptr %2, align 8
  %3 = load ptr, ptr %2, align 8
  %4 = call i64 @strlen(ptr noundef %3) #15
  ret i64 %4
}

; Function Attrs: mustprogress nounwind uwtable
define linkonce_odr void @_ZNSt7__cxx1112basic_stringIcSt11char_traitsIcESaIcEE12_Alloc_hiderD2Ev(ptr noundef nonnull align 8 dereferenceable(8) %0) unnamed_addr #1 comdat align 2 {
  %2 = alloca ptr, align 8
  store ptr %0, ptr %2, align 8
  %3 = load ptr, ptr %2, align 8
  call void @_ZNSaIcED2Ev(ptr noundef nonnull align 1 dereferenceable(1) %3) #15
  ret void
}

; Function Attrs: mustprogress nounwind uwtable
define linkonce_odr void @_ZN3gmx17ISimulatorElementD2Ev(ptr noundef nonnull align 8 dereferenceable(8) %0) unnamed_addr #1 comdat align 2 {
  %2 = alloca ptr, align 8
  store ptr %0, ptr %2, align 8
  ret void
}

; Function Attrs: mustprogress nounwind uwtable
define linkonce_odr void @_ZN3gmx23ICheckpointHelperClientD2Ev(ptr noundef nonnull align 8 dereferenceable(8) %0) unnamed_addr #1 comdat align 2 {
  %2 = alloca ptr, align 8
  store ptr %0, ptr %2, align 8
  ret void
}

; Function Attrs: mustprogress uwtable
define linkonce_odr void @_ZNSt7__cxx1112basic_stringIcSt11char_traitsIcESaIcEEC2IS3_EEPKcRKS3_(ptr noundef nonnull align 8 dereferenceable(32) %0, ptr noundef %1, ptr noundef nonnull align 1 dereferenceable(1) %2) unnamed_addr #0 comdat align 2 personality ptr @__gxx_personality_v0 {
  %4 = alloca ptr, align 8
  %5 = alloca ptr, align 8
  %6 = alloca ptr, align 8
  %7 = alloca ptr, align 8
  %8 = alloca i32, align 4
  %9 = alloca ptr, align 8
  store ptr %0, ptr %4, align 8
  store ptr %1, ptr %5, align 8
  store ptr %2, ptr %6, align 8
  %10 = load ptr, ptr %4, align 8
  %11 = getelementptr inbounds %"class.std::__cxx11::basic_string", ptr %10, i32 0, i32 0
  %12 = call noundef ptr @_ZNSt7__cxx1112basic_stringIcSt11char_traitsIcESaIcEE13_M_local_dataEv(ptr noundef nonnull align 8 dereferenceable(32) %10)
  %13 = load ptr, ptr %6, align 8
  call void @_ZNSt7__cxx1112basic_stringIcSt11char_traitsIcESaIcEE12_Alloc_hiderC1EPcRKS3_(ptr noundef nonnull align 8 dereferenceable(8) %11, ptr noundef %12, ptr noundef nonnull align 1 dereferenceable(1) %13)
  %14 = load ptr, ptr %5, align 8
  %15 = icmp eq ptr %14, null
  br i1 %15, label %16, label %22

16:                                               ; preds = %3
  invoke void @_ZSt19__throw_logic_errorPKc(ptr noundef @.str.1) #17
          to label %17 unwind label %18

17:                                               ; preds = %16
  unreachable

18:                                               ; preds = %26, %22, %16
  %19 = landingpad { ptr, i32 }
          cleanup
  %20 = extractvalue { ptr, i32 } %19, 0
  store ptr %20, ptr %7, align 8
  %21 = extractvalue { ptr, i32 } %19, 1
  store i32 %21, ptr %8, align 4
  call void @_ZNSt7__cxx1112basic_stringIcSt11char_traitsIcESaIcEE12_Alloc_hiderD2Ev(ptr noundef nonnull align 8 dereferenceable(8) %11) #15
  br label %31

22:                                               ; preds = %3
  %23 = load ptr, ptr %5, align 8
  %24 = load ptr, ptr %5, align 8
  %25 = invoke noundef i64 @_ZNSt11char_traitsIcE6lengthEPKc(ptr noundef %24)
          to label %26 unwind label %18

26:                                               ; preds = %22
  %27 = getelementptr inbounds i8, ptr %23, i64 %25
  store ptr %27, ptr %9, align 8
  %28 = load ptr, ptr %5, align 8
  %29 = load ptr, ptr %9, align 8
  invoke void @_ZNSt7__cxx1112basic_stringIcSt11char_traitsIcESaIcEE12_M_constructIPKcEEvT_S8_St20forward_iterator_tag(ptr noundef nonnull align 8 dereferenceable(32) %10, ptr noundef %28, ptr noundef %29)
          to label %30 unwind label %18

30:                                               ; preds = %26
  ret void

31:                                               ; preds = %18
  %32 = load ptr, ptr %7, align 8
  %33 = load i32, ptr %8, align 4
  %34 = insertvalue { ptr, i32 } poison, ptr %32, 0
  %35 = insertvalue { ptr, i32 } %34, i32 %33, 1
  resume { ptr, i32 } %35
}

; Function Attrs: mustprogress nounwind uwtable
define linkonce_odr void @_ZN3gmx23ICheckpointHelperClientC2Ev(ptr noundef nonnull align 8 dereferenceable(8) %0) unnamed_addr #1 comdat align 2 {
  %2 = alloca ptr, align 8
  store ptr %0, ptr %2, align 8
  %3 = load ptr, ptr %2, align 8
  store ptr getelementptr inbounds inrange(-16, 40) ({ [7 x ptr] }, ptr @_ZTVN3gmx23ICheckpointHelperClientE, i32 0, i32 0, i32 2), ptr %3, align 8
  ret void
}

; Function Attrs: mustprogress nounwind uwtable
define linkonce_odr void @_ZN3gmx17ISimulatorElementC2Ev(ptr noundef nonnull align 8 dereferenceable(8) %0) unnamed_addr #1 comdat align 2 {
  %2 = alloca ptr, align 8
  store ptr %0, ptr %2, align 8
  %3 = load ptr, ptr %2, align 8
  store ptr getelementptr inbounds inrange(-16, 40) ({ [7 x ptr] }, ptr @_ZTVN3gmx17ISimulatorElementE, i32 0, i32 0, i32 2), ptr %3, align 8
  ret void
}

; Function Attrs: mustprogress uwtable
define void @_ZN3gmx11PullElementC2Eb7PbcTypePNS_19StatePropagatorDataEP6pull_tPK9t_commrecPKNS_7MDAtomsE(ptr noundef nonnull align 8 dereferenceable(96) %0, i1 noundef zeroext %1, i32 noundef %2, ptr noundef %3, ptr noundef %4, ptr noundef %5, ptr noundef %6) unnamed_addr #0 align 2 personality ptr @__gxx_personality_v0 {
  %8 = alloca ptr, align 8
  %9 = alloca i8, align 1
  %10 = alloca i32, align 4
  %11 = alloca ptr, align 8
  %12 = alloca ptr, align 8
  %13 = alloca ptr, align 8
  %14 = alloca ptr, align 8
  %15 = alloca %"class.std::allocator", align 1
  %16 = alloca ptr, align 8
  %17 = alloca i32, align 4
  store ptr %0, ptr %8, align 8
  %18 = zext i1 %1 to i8
  store i8 %18, ptr %9, align 1
  store i32 %2, ptr %10, align 4
  store ptr %3, ptr %11, align 8
  store ptr %4, ptr %12, align 8
  store ptr %5, ptr %13, align 8
  store ptr %6, ptr %14, align 8
  %19 = load ptr, ptr %8, align 8
  call void @_ZN3gmx17ISimulatorElementC2Ev(ptr noundef nonnull align 8 dereferenceable(8) %19) #15
  %20 = getelementptr inbounds i8, ptr %19, i64 8
  call void @_ZN3gmx23ICheckpointHelperClientC2Ev(ptr noundef nonnull align 8 dereferenceable(8) %20) #15
  store ptr getelementptr inbounds inrange(-16, 64) ({ [10 x ptr], [7 x ptr] }, ptr @_ZTVN3gmx11PullElementE, i32 0, i32 0, i32 2), ptr %19, align 8
  %21 = getelementptr inbounds i8, ptr %19, i64 8
  store ptr getelementptr inbounds inrange(-16, 40) ({ [10 x ptr], [7 x ptr] }, ptr @_ZTVN3gmx11PullElementE, i32 0, i32 1, i32 2), ptr %21, align 8
  %22 = getelementptr inbounds %"class.gmx::PullElement", ptr %19, i32 0, i32 2
  %23 = load i8, ptr %9, align 1
  %24 = trunc i8 %23 to i1
  %25 = zext i1 %24 to i8
  store i8 %25, ptr %22, align 8
  %26 = getelementptr inbounds %"class.gmx::PullElement", ptr %19, i32 0, i32 3
  %27 = load i32, ptr %10, align 4
  store i32 %27, ptr %26, align 4
  %28 = getelementptr inbounds %"class.gmx::PullElement", ptr %19, i32 0, i32 4
  call void @_ZNSaIcEC1Ev(ptr noundef nonnull align 1 dereferenceable(1) %15) #15
  invoke void @_ZNSt7__cxx1112basic_stringIcSt11char_traitsIcESaIcEEC2IS3_EEPKcRKS3_(ptr noundef nonnull align 8 dereferenceable(32) %28, ptr noundef @.str, ptr noundef nonnull align 1 dereferenceable(1) %15)
          to label %29 unwind label %39

29:                                               ; preds = %7
  call void @_ZNSaIcED1Ev(ptr noundef nonnull align 1 dereferenceable(1) %15) #15
  %30 = getelementptr inbounds %"class.gmx::PullElement", ptr %19, i32 0, i32 5
  store i8 0, ptr %30, align 8
  %31 = getelementptr inbounds %"class.gmx::PullElement", ptr %19, i32 0, i32 6
  %32 = load ptr, ptr %11, align 8
  store ptr %32, ptr %31, align 8
  %33 = getelementptr inbounds %"class.gmx::PullElement", ptr %19, i32 0, i32 7
  %34 = load ptr, ptr %12, align 8
  store ptr %34, ptr %33, align 8
  %35 = getelementptr inbounds %"class.gmx::PullElement", ptr %19, i32 0, i32 8
  %36 = load ptr, ptr %13, align 8
  store ptr %36, ptr %35, align 8
  %37 = getelementptr inbounds %"class.gmx::PullElement", ptr %19, i32 0, i32 9
  %38 = load ptr, ptr %14, align 8
  store ptr %38, ptr %37, align 8
  ret void

39:                                               ; preds = %7
  %40 = landingpad { ptr, i32 }
          cleanup
  %41 = extractvalue { ptr, i32 } %40, 0
  store ptr %41, ptr %16, align 8
  %42 = extractvalue { ptr, i32 } %40, 1
  store i32 %42, ptr %17, align 4
  call void @_ZNSaIcED1Ev(ptr noundef nonnull align 1 dereferenceable(1) %15) #15
  %43 = getelementptr inbounds i8, ptr %19, i64 8
  call void @_ZN3gmx23ICheckpointHelperClientD2Ev(ptr noundef nonnull align 8 dereferenceable(8) %43) #15
  call void @_ZN3gmx17ISimulatorElementD2Ev(ptr noundef nonnull align 8 dereferenceable(8) %19) #15
  br label %44

44:                                               ; preds = %39
  %45 = load ptr, ptr %16, align 8
  %46 = load i32, ptr %17, align 4
  %47 = insertvalue { ptr, i32 } poison, ptr %45, 0
  %48 = insertvalue { ptr, i32 } %47, i32 %46, 1
  resume { ptr, i32 } %48
}