; Function Attrs: mustprogress uwtable
define void @_ZN3gmx11PullElementC2Eb7PbcTypePNS_19StatePropagatorDataEP6pull_tPK9t_commrecPKNS_7MDAtomsE(ptr noundef nonnull align 8 dereferenceable(96) %0, i1 noundef zeroext %1, i32 noundef %2, ptr noundef %3, ptr noundef %4, ptr noundef %5, ptr noundef %6) unnamed_addr #0 align 2 personality ptr @__gxx_personality_v0 {
  %8 = alloca %"class.std::allocator", align 1
  %9 = zext i1 %1 to i8
  %10 = getelementptr inbounds i8, ptr %0, i64 8
  store ptr getelementptr inbounds inrange(-16, 64) ({ [10 x ptr], [7 x ptr] }, ptr @_ZTVN3gmx11PullElementE, i64 0, i32 0, i64 2), ptr %0, align 8
  store ptr getelementptr inbounds inrange(-16, 40) ({ [10 x ptr], [7 x ptr] }, ptr @_ZTVN3gmx11PullElementE, i64 0, i32 1, i64 2), ptr %10, align 8
  %11 = getelementptr inbounds i8, ptr %0, i64 16
  store i8 %9, ptr %11, align 8
  %12 = getelementptr inbounds i8, ptr %0, i64 20
  store i32 %2, ptr %12, align 4
  %13 = getelementptr inbounds i8, ptr %0, i64 24
  call void @_ZNSaIcEC1Ev(ptr noundef nonnull align 1 dereferenceable(1) %8) #22
  %14 = invoke noundef ptr @_ZNSt7__cxx1112basic_stringIcSt11char_traitsIcESaIcEE13_M_local_dataEv(ptr noundef nonnull align 8 dereferenceable(32) %13)
          to label %.noexc unwind label %22

.noexc:                                           ; preds = %7
  invoke void @_ZNSt7__cxx1112basic_stringIcSt11char_traitsIcESaIcEE12_Alloc_hiderC1EPcRKS3_(ptr noundef nonnull align 8 dereferenceable(8) %13, ptr noundef %14, ptr noundef nonnull align 1 dereferenceable(1) %8)
          to label %.noexc8 unwind label %22

.noexc8:                                          ; preds = %.noexc
  invoke void @_ZNSt7__cxx1112basic_stringIcSt11char_traitsIcESaIcEE12_M_constructIPKcEEvT_S8_St20forward_iterator_tag(ptr noundef nonnull align 8 dereferenceable(32) %13, ptr noundef nonnull @.str, ptr noundef nonnull getelementptr inbounds ([12 x i8], ptr @.str, i64 0, i64 11))
          to label %_ZNSt7__cxx1112basic_stringIcSt11char_traitsIcESaIcEEC2IS3_EEPKcRKS3_.exit unwind label %15

15:                                               ; preds = %.noexc8
  %16 = landingpad { ptr, i32 }
          cleanup
  call void @_ZNSaIcED2Ev(ptr noundef nonnull align 1 dereferenceable(1) %13) #22
  br label %.body

_ZNSt7__cxx1112basic_stringIcSt11char_traitsIcESaIcEEC2IS3_EEPKcRKS3_.exit: ; preds = %.noexc8
  call void @_ZNSaIcED1Ev(ptr noundef nonnull align 1 dereferenceable(1) %8) #22
  %17 = getelementptr inbounds i8, ptr %0, i64 56
  store i8 0, ptr %17, align 8
  %18 = getelementptr inbounds i8, ptr %0, i64 64
  store ptr %3, ptr %18, align 8
  %19 = getelementptr inbounds i8, ptr %0, i64 72
  store ptr %4, ptr %19, align 8
  %20 = getelementptr inbounds i8, ptr %0, i64 80
  store ptr %5, ptr %20, align 8
  %21 = getelementptr inbounds i8, ptr %0, i64 88
  store ptr %6, ptr %21, align 8
  ret void

22:                                               ; preds = %.noexc, %7
  %23 = landingpad { ptr, i32 }
          cleanup
  br label %.body

.body:                                            ; preds = %15, %22
  %eh.lpad-body = phi { ptr, i32 } [ %23, %22 ], [ %16, %15 ]
  call void @_ZNSaIcED1Ev(ptr noundef nonnull align 1 dereferenceable(1) %8) #22
  resume { ptr, i32 } %eh.lpad-body
}